; Function Attrs: mustprogress nounwind uwtable
define dso_local void @_ZN4node9TimerWrap6UpdateEmm(ptr noundef nonnull align 8 dereferenceable(200) %this, i64 noundef %interval, i64 noundef %repeat) local_unnamed_addr #3 align 2 {
entry:
  %timer_ = getelementptr inbounds i8, ptr %this, i64 48
  %0 = load ptr, ptr %timer_, align 8
  %cmp = icmp eq ptr %0, null
  br i1 %cmp, label %return, label %if.end

if.end:                                           ; preds = %entry
  %call = tail call i32 @uv_timer_start(ptr noundef nonnull %timer_, ptr noundef nonnull @_ZN4node9TimerWrap9OnTimeoutEP10uv_timer_s, i64 noundef %interval, i64 noundef %repeat) #13
  br label %return

return:                                           ; preds = %entry, %if.end
  ret void
}